; Function Attrs: nounwind uwtable
define internal noundef ptr @uat_key_record_copy_cb(ptr noundef returned writeonly initializes((0, 9), (16, 24)) %0, ptr noundef readonly captures(none) %1, i64 %2) #0 {
  %4 = load ptr, ptr %1, align 8
  %5 = tail call noalias ptr @g_strdup(ptr noundef %4) #11
  store ptr %5, ptr %0, align 8
  %6 = getelementptr inbounds nuw i8, ptr %1, i64 16
  %7 = load ptr, ptr %6, align 8
  %8 = tail call noalias ptr @g_strdup(ptr noundef %7) #11
  %9 = getelementptr inbounds nuw i8, ptr %0, i64 16
  store ptr %8, ptr %9, align 8
  %10 = getelementptr inbounds nuw i8, ptr %1, i64 8
  %11 = load i8, ptr %10, align 8
  %12 = getelementptr inbounds nuw i8, ptr %0, i64 8
  store i8 %11, ptr %12, align 8
  ret ptr %0
}